target datalayout = "e-m:e-p270:32:32-p271:32:32-p272:64:64-i64:64-i128:128-f80:128-n8:16:32:64-S128"
target triple = "x86_64-pc-linux-gnu"

@l___private_Lean_Data_Lsp_LanguageFeatures_0__Lean_Lsp_toJsonSemanticTokenType____x40_Lean_Data_Lsp_LanguageFeatures___hyg_7920____closed__2 = internal global ptr null, align 8
@l___private_Lean_Data_Lsp_LanguageFeatures_0__Lean_Lsp_toJsonSemanticTokenType____x40_Lean_Data_Lsp_LanguageFeatures___hyg_7920____closed__4 = internal global ptr null, align 8
@l___private_Lean_Data_Lsp_LanguageFeatures_0__Lean_Lsp_toJsonSemanticTokenType____x40_Lean_Data_Lsp_LanguageFeatures___hyg_7920____closed__6 = internal global ptr null, align 8
@l___private_Lean_Data_Lsp_LanguageFeatures_0__Lean_Lsp_toJsonSemanticTokenType____x40_Lean_Data_Lsp_LanguageFeatures___hyg_7920____closed__8 = internal global ptr null, align 8
@l___private_Lean_Data_Lsp_LanguageFeatures_0__Lean_Lsp_toJsonSemanticTokenType____x40_Lean_Data_Lsp_LanguageFeatures___hyg_7920____closed__10 = internal global ptr null, align 8
@l___private_Lean_Data_Lsp_LanguageFeatures_0__Lean_Lsp_toJsonSemanticTokenType____x40_Lean_Data_Lsp_LanguageFeatures___hyg_7920____closed__12 = internal global ptr null, align 8
@l___private_Lean_Data_Lsp_LanguageFeatures_0__Lean_Lsp_toJsonSemanticTokenType____x40_Lean_Data_Lsp_LanguageFeatures___hyg_7920____closed__14 = internal global ptr null, align 8
@l___private_Lean_Data_Lsp_LanguageFeatures_0__Lean_Lsp_toJsonSemanticTokenType____x40_Lean_Data_Lsp_LanguageFeatures___hyg_7920____closed__16 = internal global ptr null, align 8
@l___private_Lean_Data_Lsp_LanguageFeatures_0__Lean_Lsp_toJsonSemanticTokenType____x40_Lean_Data_Lsp_LanguageFeatures___hyg_7920____closed__18 = internal global ptr null, align 8
@l___private_Lean_Data_Lsp_LanguageFeatures_0__Lean_Lsp_toJsonSemanticTokenType____x40_Lean_Data_Lsp_LanguageFeatures___hyg_7920____closed__20 = internal global ptr null, align 8
@l___private_Lean_Data_Lsp_LanguageFeatures_0__Lean_Lsp_toJsonSemanticTokenType____x40_Lean_Data_Lsp_LanguageFeatures___hyg_7920____closed__22 = internal global ptr null, align 8
@l___private_Lean_Data_Lsp_LanguageFeatures_0__Lean_Lsp_toJsonSemanticTokenType____x40_Lean_Data_Lsp_LanguageFeatures___hyg_7920____closed__24 = internal global ptr null, align 8
@l___private_Lean_Data_Lsp_LanguageFeatures_0__Lean_Lsp_toJsonSemanticTokenType____x40_Lean_Data_Lsp_LanguageFeatures___hyg_7920____closed__26 = internal global ptr null, align 8
@l___private_Lean_Data_Lsp_LanguageFeatures_0__Lean_Lsp_toJsonSemanticTokenType____x40_Lean_Data_Lsp_LanguageFeatures___hyg_7920____closed__28 = internal global ptr null, align 8
@l___private_Lean_Data_Lsp_LanguageFeatures_0__Lean_Lsp_toJsonSemanticTokenType____x40_Lean_Data_Lsp_LanguageFeatures___hyg_7920____closed__30 = internal global ptr null, align 8
@l___private_Lean_Data_Lsp_LanguageFeatures_0__Lean_Lsp_toJsonSemanticTokenType____x40_Lean_Data_Lsp_LanguageFeatures___hyg_7920____closed__32 = internal global ptr null, align 8
@l___private_Lean_Data_Lsp_LanguageFeatures_0__Lean_Lsp_toJsonSemanticTokenType____x40_Lean_Data_Lsp_LanguageFeatures___hyg_7920____closed__34 = internal global ptr null, align 8
@l___private_Lean_Data_Lsp_LanguageFeatures_0__Lean_Lsp_toJsonSemanticTokenType____x40_Lean_Data_Lsp_LanguageFeatures___hyg_7920____closed__36 = internal global ptr null, align 8
@l___private_Lean_Data_Lsp_LanguageFeatures_0__Lean_Lsp_toJsonSemanticTokenType____x40_Lean_Data_Lsp_LanguageFeatures___hyg_7920____closed__38 = internal global ptr null, align 8
@l___private_Lean_Data_Lsp_LanguageFeatures_0__Lean_Lsp_toJsonSemanticTokenType____x40_Lean_Data_Lsp_LanguageFeatures___hyg_7920____closed__40 = internal global ptr null, align 8
@l___private_Lean_Data_Lsp_LanguageFeatures_0__Lean_Lsp_toJsonSemanticTokenType____x40_Lean_Data_Lsp_LanguageFeatures___hyg_7920____closed__42 = internal global ptr null, align 8
@l___private_Lean_Data_Lsp_LanguageFeatures_0__Lean_Lsp_toJsonSemanticTokenType____x40_Lean_Data_Lsp_LanguageFeatures___hyg_7920____closed__44 = internal global ptr null, align 8
@l___private_Lean_Data_Lsp_LanguageFeatures_0__Lean_Lsp_toJsonSemanticTokenType____x40_Lean_Data_Lsp_LanguageFeatures___hyg_7920____closed__46 = internal global ptr null, align 8
@l___private_Lean_Data_Lsp_LanguageFeatures_0__Lean_Lsp_toJsonSemanticTokenType____x40_Lean_Data_Lsp_LanguageFeatures___hyg_7920____closed__48 = internal global ptr null, align 8

; Function Attrs: nounwind uwtable
define ptr @l___private_Lean_Data_Lsp_LanguageFeatures_0__Lean_Lsp_toJsonSemanticTokenType____x40_Lean_Data_Lsp_LanguageFeatures___hyg_7920_(i8 noundef zeroext %0) #2 {
  %2 = alloca ptr, align 8
  %3 = alloca i8, align 1
  %4 = alloca ptr, align 8
  %5 = alloca ptr, align 8
  %6 = alloca ptr, align 8
  %7 = alloca ptr, align 8
  %8 = alloca ptr, align 8
  %9 = alloca ptr, align 8
  %10 = alloca ptr, align 8
  %11 = alloca ptr, align 8
  %12 = alloca ptr, align 8
  %13 = alloca ptr, align 8
  %14 = alloca ptr, align 8
  %15 = alloca ptr, align 8
  %16 = alloca ptr, align 8
  %17 = alloca ptr, align 8
  %18 = alloca ptr, align 8
  %19 = alloca ptr, align 8
  %20 = alloca ptr, align 8
  %21 = alloca ptr, align 8
  %22 = alloca ptr, align 8
  %23 = alloca ptr, align 8
  %24 = alloca ptr, align 8
  %25 = alloca ptr, align 8
  %26 = alloca ptr, align 8
  %27 = alloca ptr, align 8
  store i8 %0, ptr %3, align 1, !tbaa !12
  br label %28

28:                                               ; preds = %1
  %29 = load i8, ptr %3, align 1, !tbaa !12
  %30 = zext i8 %29 to i32
  switch i32 %30, label %100 [
    i32 0, label %31
    i32 1, label %34
    i32 2, label %37
    i32 3, label %40
    i32 4, label %43
    i32 5, label %46
    i32 6, label %49
    i32 7, label %52
    i32 8, label %55
    i32 9, label %58
    i32 10, label %61
    i32 11, label %64
    i32 12, label %67
    i32 13, label %70
    i32 14, label %73
    i32 15, label %76
    i32 16, label %79
    i32 17, label %82
    i32 18, label %85
    i32 19, label %88
    i32 20, label %91
    i32 21, label %94
    i32 22, label %97
  ]

31:                                               ; preds = %28
  call void @llvm.lifetime.start.p0(i64 8, ptr %4) #7
  %32 = load ptr, ptr @l___private_Lean_Data_Lsp_LanguageFeatures_0__Lean_Lsp_toJsonSemanticTokenType____x40_Lean_Data_Lsp_LanguageFeatures___hyg_7920____closed__2, align 8, !tbaa !4
  store ptr %32, ptr %4, align 8, !tbaa !4
  %33 = load ptr, ptr %4, align 8, !tbaa !4
  store ptr %33, ptr %2, align 8
  call void @llvm.lifetime.end.p0(i64 8, ptr %4) #7
  br label %103

34:                                               ; preds = %28
  call void @llvm.lifetime.start.p0(i64 8, ptr %5) #7
  %35 = load ptr, ptr @l___private_Lean_Data_Lsp_LanguageFeatures_0__Lean_Lsp_toJsonSemanticTokenType____x40_Lean_Data_Lsp_LanguageFeatures___hyg_7920____closed__4, align 8, !tbaa !4
  store ptr %35, ptr %5, align 8, !tbaa !4
  %36 = load ptr, ptr %5, align 8, !tbaa !4
  store ptr %36, ptr %2, align 8
  call void @llvm.lifetime.end.p0(i64 8, ptr %5) #7
  br label %103

37:                                               ; preds = %28
  call void @llvm.lifetime.start.p0(i64 8, ptr %6) #7
  %38 = load ptr, ptr @l___private_Lean_Data_Lsp_LanguageFeatures_0__Lean_Lsp_toJsonSemanticTokenType____x40_Lean_Data_Lsp_LanguageFeatures___hyg_7920____closed__6, align 8, !tbaa !4
  store ptr %38, ptr %6, align 8, !tbaa !4
  %39 = load ptr, ptr %6, align 8, !tbaa !4
  store ptr %39, ptr %2, align 8
  call void @llvm.lifetime.end.p0(i64 8, ptr %6) #7
  br label %103

40:                                               ; preds = %28
  call void @llvm.lifetime.start.p0(i64 8, ptr %7) #7
  %41 = load ptr, ptr @l___private_Lean_Data_Lsp_LanguageFeatures_0__Lean_Lsp_toJsonSemanticTokenType____x40_Lean_Data_Lsp_LanguageFeatures___hyg_7920____closed__8, align 8, !tbaa !4
  store ptr %41, ptr %7, align 8, !tbaa !4
  %42 = load ptr, ptr %7, align 8, !tbaa !4
  store ptr %42, ptr %2, align 8
  call void @llvm.lifetime.end.p0(i64 8, ptr %7) #7
  br label %103

43:                                               ; preds = %28
  call void @llvm.lifetime.start.p0(i64 8, ptr %8) #7
  %44 = load ptr, ptr @l___private_Lean_Data_Lsp_LanguageFeatures_0__Lean_Lsp_toJsonSemanticTokenType____x40_Lean_Data_Lsp_LanguageFeatures___hyg_7920____closed__10, align 8, !tbaa !4
  store ptr %44, ptr %8, align 8, !tbaa !4
  %45 = load ptr, ptr %8, align 8, !tbaa !4
  store ptr %45, ptr %2, align 8
  call void @llvm.lifetime.end.p0(i64 8, ptr %8) #7
  br label %103

46:                                               ; preds = %28
  call void @llvm.lifetime.start.p0(i64 8, ptr %9) #7
  %47 = load ptr, ptr @l___private_Lean_Data_Lsp_LanguageFeatures_0__Lean_Lsp_toJsonSemanticTokenType____x40_Lean_Data_Lsp_LanguageFeatures___hyg_7920____closed__12, align 8, !tbaa !4
  store ptr %47, ptr %9, align 8, !tbaa !4
  %48 = load ptr, ptr %9, align 8, !tbaa !4
  store ptr %48, ptr %2, align 8
  call void @llvm.lifetime.end.p0(i64 8, ptr %9) #7
  br label %103

49:                                               ; preds = %28
  call void @llvm.lifetime.start.p0(i64 8, ptr %10) #7
  %50 = load ptr, ptr @l___private_Lean_Data_Lsp_LanguageFeatures_0__Lean_Lsp_toJsonSemanticTokenType____x40_Lean_Data_Lsp_LanguageFeatures___hyg_7920____closed__14, align 8, !tbaa !4
  store ptr %50, ptr %10, align 8, !tbaa !4
  %51 = load ptr, ptr %10, align 8, !tbaa !4
  store ptr %51, ptr %2, align 8
  call void @llvm.lifetime.end.p0(i64 8, ptr %10) #7
  br label %103

52:                                               ; preds = %28
  call void @llvm.lifetime.start.p0(i64 8, ptr %11) #7
  %53 = load ptr, ptr @l___private_Lean_Data_Lsp_LanguageFeatures_0__Lean_Lsp_toJsonSemanticTokenType____x40_Lean_Data_Lsp_LanguageFeatures___hyg_7920____closed__16, align 8, !tbaa !4
  store ptr %53, ptr %11, align 8, !tbaa !4
  %54 = load ptr, ptr %11, align 8, !tbaa !4
  store ptr %54, ptr %2, align 8
  call void @llvm.lifetime.end.p0(i64 8, ptr %11) #7
  br label %103

55:                                               ; preds = %28
  call void @llvm.lifetime.start.p0(i64 8, ptr %12) #7
  %56 = load ptr, ptr @l___private_Lean_Data_Lsp_LanguageFeatures_0__Lean_Lsp_toJsonSemanticTokenType____x40_Lean_Data_Lsp_LanguageFeatures___hyg_7920____closed__18, align 8, !tbaa !4
  store ptr %56, ptr %12, align 8, !tbaa !4
  %57 = load ptr, ptr %12, align 8, !tbaa !4
  store ptr %57, ptr %2, align 8
  call void @llvm.lifetime.end.p0(i64 8, ptr %12) #7
  br label %103

58:                                               ; preds = %28
  call void @llvm.lifetime.start.p0(i64 8, ptr %13) #7
  %59 = load ptr, ptr @l___private_Lean_Data_Lsp_LanguageFeatures_0__Lean_Lsp_toJsonSemanticTokenType____x40_Lean_Data_Lsp_LanguageFeatures___hyg_7920____closed__20, align 8, !tbaa !4
  store ptr %59, ptr %13, align 8, !tbaa !4
  %60 = load ptr, ptr %13, align 8, !tbaa !4
  store ptr %60, ptr %2, align 8
  call void @llvm.lifetime.end.p0(i64 8, ptr %13) #7
  br label %103

61:                                               ; preds = %28
  call void @llvm.lifetime.start.p0(i64 8, ptr %14) #7
  %62 = load ptr, ptr @l___private_Lean_Data_Lsp_LanguageFeatures_0__Lean_Lsp_toJsonSemanticTokenType____x40_Lean_Data_Lsp_LanguageFeatures___hyg_7920____closed__22, align 8, !tbaa !4
  store ptr %62, ptr %14, align 8, !tbaa !4
  %63 = load ptr, ptr %14, align 8, !tbaa !4
  store ptr %63, ptr %2, align 8
  call void @llvm.lifetime.end.p0(i64 8, ptr %14) #7
  br label %103

64:                                               ; preds = %28
  call void @llvm.lifetime.start.p0(i64 8, ptr %15) #7
  %65 = load ptr, ptr @l___private_Lean_Data_Lsp_LanguageFeatures_0__Lean_Lsp_toJsonSemanticTokenType____x40_Lean_Data_Lsp_LanguageFeatures___hyg_7920____closed__24, align 8, !tbaa !4
  store ptr %65, ptr %15, align 8, !tbaa !4
  %66 = load ptr, ptr %15, align 8, !tbaa !4
  store ptr %66, ptr %2, align 8
  call void @llvm.lifetime.end.p0(i64 8, ptr %15) #7
  br label %103

67:                                               ; preds = %28
  call void @llvm.lifetime.start.p0(i64 8, ptr %16) #7
  %68 = load ptr, ptr @l___private_Lean_Data_Lsp_LanguageFeatures_0__Lean_Lsp_toJsonSemanticTokenType____x40_Lean_Data_Lsp_LanguageFeatures___hyg_7920____closed__26, align 8, !tbaa !4
  store ptr %68, ptr %16, align 8, !tbaa !4
  %69 = load ptr, ptr %16, align 8, !tbaa !4
  store ptr %69, ptr %2, align 8
  call void @llvm.lifetime.end.p0(i64 8, ptr %16) #7
  br label %103

70:                                               ; preds = %28
  call void @llvm.lifetime.start.p0(i64 8, ptr %17) #7
  %71 = load ptr, ptr @l___private_Lean_Data_Lsp_LanguageFeatures_0__Lean_Lsp_toJsonSemanticTokenType____x40_Lean_Data_Lsp_LanguageFeatures___hyg_7920____closed__28, align 8, !tbaa !4
  store ptr %71, ptr %17, align 8, !tbaa !4
  %72 = load ptr, ptr %17, align 8, !tbaa !4
  store ptr %72, ptr %2, align 8
  call void @llvm.lifetime.end.p0(i64 8, ptr %17) #7
  br label %103

73:                                               ; preds = %28
  call void @llvm.lifetime.start.p0(i64 8, ptr %18) #7
  %74 = load ptr, ptr @l___private_Lean_Data_Lsp_LanguageFeatures_0__Lean_Lsp_toJsonSemanticTokenType____x40_Lean_Data_Lsp_LanguageFeatures___hyg_7920____closed__30, align 8, !tbaa !4
  store ptr %74, ptr %18, align 8, !tbaa !4
  %75 = load ptr, ptr %18, align 8, !tbaa !4
  store ptr %75, ptr %2, align 8
  call void @llvm.lifetime.end.p0(i64 8, ptr %18) #7
  br label %103

76:                                               ; preds = %28
  call void @llvm.lifetime.start.p0(i64 8, ptr %19) #7
  %77 = load ptr, ptr @l___private_Lean_Data_Lsp_LanguageFeatures_0__Lean_Lsp_toJsonSemanticTokenType____x40_Lean_Data_Lsp_LanguageFeatures___hyg_7920____closed__32, align 8, !tbaa !4
  store ptr %77, ptr %19, align 8, !tbaa !4
  %78 = load ptr, ptr %19, align 8, !tbaa !4
  store ptr %78, ptr %2, align 8
  call void @llvm.lifetime.end.p0(i64 8, ptr %19) #7
  br label %103

79:                                               ; preds = %28
  call void @llvm.lifetime.start.p0(i64 8, ptr %20) #7
  %80 = load ptr, ptr @l___private_Lean_Data_Lsp_LanguageFeatures_0__Lean_Lsp_toJsonSemanticTokenType____x40_Lean_Data_Lsp_LanguageFeatures___hyg_7920____closed__34, align 8, !tbaa !4
  store ptr %80, ptr %20, align 8, !tbaa !4
  %81 = load ptr, ptr %20, align 8, !tbaa !4
  store ptr %81, ptr %2, align 8
  call void @llvm.lifetime.end.p0(i64 8, ptr %20) #7
  br label %103

82:                                               ; preds = %28
  call void @llvm.lifetime.start.p0(i64 8, ptr %21) #7
  %83 = load ptr, ptr @l___private_Lean_Data_Lsp_LanguageFeatures_0__Lean_Lsp_toJsonSemanticTokenType____x40_Lean_Data_Lsp_LanguageFeatures___hyg_7920____closed__36, align 8, !tbaa !4
  store ptr %83, ptr %21, align 8, !tbaa !4
  %84 = load ptr, ptr %21, align 8, !tbaa !4
  store ptr %84, ptr %2, align 8
  call void @llvm.lifetime.end.p0(i64 8, ptr %21) #7
  br label %103

85:                                               ; preds = %28
  call void @llvm.lifetime.start.p0(i64 8, ptr %22) #7
  %86 = load ptr, ptr @l___private_Lean_Data_Lsp_LanguageFeatures_0__Lean_Lsp_toJsonSemanticTokenType____x40_Lean_Data_Lsp_LanguageFeatures___hyg_7920____closed__38, align 8, !tbaa !4
  store ptr %86, ptr %22, align 8, !tbaa !4
  %87 = load ptr, ptr %22, align 8, !tbaa !4
  store ptr %87, ptr %2, align 8
  call void @llvm.lifetime.end.p0(i64 8, ptr %22) #7
  br label %103

88:                                               ; preds = %28
  call void @llvm.lifetime.start.p0(i64 8, ptr %23) #7
  %89 = load ptr, ptr @l___private_Lean_Data_Lsp_LanguageFeatures_0__Lean_Lsp_toJsonSemanticTokenType____x40_Lean_Data_Lsp_LanguageFeatures___hyg_7920____closed__40, align 8, !tbaa !4
  store ptr %89, ptr %23, align 8, !tbaa !4
  %90 = load ptr, ptr %23, align 8, !tbaa !4
  store ptr %90, ptr %2, align 8
  call void @llvm.lifetime.end.p0(i64 8, ptr %23) #7
  br label %103

91:                                               ; preds = %28
  call void @llvm.lifetime.start.p0(i64 8, ptr %24) #7
  %92 = load ptr, ptr @l___private_Lean_Data_Lsp_LanguageFeatures_0__Lean_Lsp_toJsonSemanticTokenType____x40_Lean_Data_Lsp_LanguageFeatures___hyg_7920____closed__42, align 8, !tbaa !4
  store ptr %92, ptr %24, align 8, !tbaa !4
  %93 = load ptr, ptr %24, align 8, !tbaa !4
  store ptr %93, ptr %2, align 8
  call void @llvm.lifetime.end.p0(i64 8, ptr %24) #7
  br label %103

94:                                               ; preds = %28
  call void @llvm.lifetime.start.p0(i64 8, ptr %25) #7
  %95 = load ptr, ptr @l___private_Lean_Data_Lsp_LanguageFeatures_0__Lean_Lsp_toJsonSemanticTokenType____x40_Lean_Data_Lsp_LanguageFeatures___hyg_7920____closed__44, align 8, !tbaa !4
  store ptr %95, ptr %25, align 8, !tbaa !4
  %96 = load ptr, ptr %25, align 8, !tbaa !4
  store ptr %96, ptr %2, align 8
  call void @llvm.lifetime.end.p0(i64 8, ptr %25) #7
  br label %103

97:                                               ; preds = %28
  call void @llvm.lifetime.start.p0(i64 8, ptr %26) #7
  %98 = load ptr, ptr @l___private_Lean_Data_Lsp_LanguageFeatures_0__Lean_Lsp_toJsonSemanticTokenType____x40_Lean_Data_Lsp_LanguageFeatures___hyg_7920____closed__46, align 8, !tbaa !4
  store ptr %98, ptr %26, align 8, !tbaa !4
  %99 = load ptr, ptr %26, align 8, !tbaa !4
  store ptr %99, ptr %2, align 8
  call void @llvm.lifetime.end.p0(i64 8, ptr %26) #7
  br label %103

100:                                              ; preds = %28
  call void @llvm.lifetime.start.p0(i64 8, ptr %27) #7
  %101 = load ptr, ptr @l___private_Lean_Data_Lsp_LanguageFeatures_0__Lean_Lsp_toJsonSemanticTokenType____x40_Lean_Data_Lsp_LanguageFeatures___hyg_7920____closed__48, align 8, !tbaa !4
  store ptr %101, ptr %27, align 8, !tbaa !4
  %102 = load ptr, ptr %27, align 8, !tbaa !4
  store ptr %102, ptr %2, align 8
  call void @llvm.lifetime.end.p0(i64 8, ptr %27) #7
  br label %103

103:                                              ; preds = %100, %97, %94, %91, %88, %85, %82, %79, %76, %73, %70, %67, %64, %61, %58, %55, %52, %49, %46, %43, %40, %37, %34, %31
  %104 = load ptr, ptr %2, align 8
  ret ptr %104
}